target datalayout = "e-m:e-p270:32:32-p271:32:32-p272:64:64-i64:64-i128:128-f80:128-n8:16:32:64-S128"
target triple = "x86_64-pc-linux-gnu"

%struct.quic_stream_list_node_st = type { ptr, ptr }
%struct.quic_stream_st = type { %struct.quic_stream_list_node_st, %struct.quic_stream_list_node_st, %struct.quic_stream_list_node_st, ptr, i64, i64, i64, i64, i64, i64, i64, ptr, ptr, %struct.quic_txfc_st, %struct.quic_rxfc_st, i64 }
%struct.quic_txfc_st = type { ptr, i64, i64, i8 }
%struct.quic_rxfc_st = type { i64, i64, i64, i64, i64, i64, i64, %struct.OSSL_TIME, ptr, ptr, ptr, i8, i8, i8, i8 }
%struct.OSSL_TIME = type { i64 }

; Function Attrs: nounwind uwtable
define i32 @ossl_quic_stream_map_schedule_stop_sending(ptr noundef %0, ptr noundef %1) #0 {
  %3 = alloca i32, align 4
  %4 = alloca ptr, align 8
  %5 = alloca ptr, align 8
  store ptr %0, ptr %4, align 8, !tbaa !3
  store ptr %1, ptr %5, align 8, !tbaa !37
  %6 = load ptr, ptr %5, align 8, !tbaa !37
  %7 = getelementptr inbounds nuw %struct.quic_stream_st, ptr %6, i32 0, i32 15
  %8 = load i64, ptr %7, align 8
  %9 = lshr i64 %8, 26
  %10 = and i64 %9, 1
  %11 = trunc i64 %10 to i32
  %12 = icmp ne i32 %11, 0
  br i1 %12, label %14, label %13

13:                                               ; preds = %2
  store i32 0, ptr %3, align 4
  br label %40

14:                                               ; preds = %2
  %15 = load ptr, ptr %5, align 8, !tbaa !37
  %16 = getelementptr inbounds nuw %struct.quic_stream_st, ptr %15, i32 0, i32 15
  %17 = load i64, ptr %16, align 8
  %18 = lshr i64 %17, 34
  %19 = and i64 %18, 1
  %20 = trunc i64 %19 to i32
  %21 = icmp ne i32 %20, 0
  br i1 %21, label %22, label %23

22:                                               ; preds = %14
  store i32 1, ptr %3, align 4
  br label %40

23:                                               ; preds = %14
  %24 = load ptr, ptr %5, align 8, !tbaa !37
  %25 = getelementptr inbounds nuw %struct.quic_stream_st, ptr %24, i32 0, i32 15
  %26 = load i64, ptr %25, align 8
  %27 = lshr i64 %26, 16
  %28 = and i64 %27, 255
  %29 = trunc i64 %28 to i32
  switch i32 %29, label %30 [
    i32 1, label %31
    i32 2, label %31
  ]

30:                                               ; preds = %23
  store i32 1, ptr %3, align 4
  br label %40

31:                                               ; preds = %23, %23
  br label %32

32:                                               ; preds = %31
  %33 = load ptr, ptr %5, align 8, !tbaa !37
  %34 = getelementptr inbounds nuw %struct.quic_stream_st, ptr %33, i32 0, i32 15
  %35 = load i64, ptr %34, align 8
  %36 = and i64 %35, -17179869185
  %37 = or i64 %36, 17179869184
  store i64 %37, ptr %34, align 8
  %38 = load ptr, ptr %4, align 8, !tbaa !3
  %39 = load ptr, ptr %5, align 8, !tbaa !37
  call void @ossl_quic_stream_map_update_state(ptr noundef %38, ptr noundef %39)
  store i32 1, ptr %3, align 4
  br label %40

40:                                               ; preds = %32, %30, %22, %13
  %41 = load i32, ptr %3, align 4
  ret i32 %41
}

; Function Attrs: nounwind uwtable
define i32 @ossl_quic_stream_map_stop_sending_recv_part(ptr noundef %0, ptr noundef %1, i64 noundef %2) #0 {
  %4 = alloca i32, align 4
  %5 = alloca ptr, align 8
  %6 = alloca ptr, align 8
  %7 = alloca i64, align 8
  store ptr %0, ptr %5, align 8, !tbaa !3
  store ptr %1, ptr %6, align 8, !tbaa !37
  store i64 %2, ptr %7, align 8, !tbaa !47
  %8 = load ptr, ptr %6, align 8, !tbaa !37
  %9 = getelementptr inbounds nuw %struct.quic_stream_st, ptr %8, i32 0, i32 15
  %10 = load i64, ptr %9, align 8
  %11 = lshr i64 %10, 26
  %12 = and i64 %11, 1
  %13 = trunc i64 %12 to i32
  %14 = icmp ne i32 %13, 0
  br i1 %14, label %15, label %16

15:                                               ; preds = %3
  store i32 0, ptr %4, align 4
  br label %38

16:                                               ; preds = %3
  %17 = load ptr, ptr %6, align 8, !tbaa !37
  %18 = getelementptr inbounds nuw %struct.quic_stream_st, ptr %17, i32 0, i32 15
  %19 = load i64, ptr %18, align 8
  %20 = lshr i64 %19, 16
  %21 = and i64 %20, 255
  %22 = trunc i64 %21 to i32
  switch i32 %22, label %23 [
    i32 0, label %24
    i32 3, label %24
    i32 4, label %24
    i32 5, label %24
    i32 6, label %24
    i32 1, label %25
    i32 2, label %25
  ]

23:                                               ; preds = %16
  br label %24

24:                                               ; preds = %16, %16, %16, %16, %16, %23
  store i32 0, ptr %4, align 4
  br label %38

25:                                               ; preds = %16, %16
  br label %26

26:                                               ; preds = %25
  %27 = load ptr, ptr %6, align 8, !tbaa !37
  %28 = getelementptr inbounds nuw %struct.quic_stream_st, ptr %27, i32 0, i32 15
  %29 = load i64, ptr %28, align 8
  %30 = and i64 %29, -67108865
  %31 = or i64 %30, 67108864
  store i64 %31, ptr %28, align 8
  %32 = load i64, ptr %7, align 8, !tbaa !47
  %33 = load ptr, ptr %6, align 8, !tbaa !37
  %34 = getelementptr inbounds nuw %struct.quic_stream_st, ptr %33, i32 0, i32 5
  store i64 %32, ptr %34, align 8, !tbaa !65
  %35 = load ptr, ptr %5, align 8, !tbaa !3
  %36 = load ptr, ptr %6, align 8, !tbaa !37
  %37 = call i32 @ossl_quic_stream_map_schedule_stop_sending(ptr noundef %35, ptr noundef %36)
  store i32 %37, ptr %4, align 4
  br label %38

38:                                               ; preds = %26, %24, %15
  %39 = load i32, ptr %4, align 4
  ret i32 %39
}