; Function Attrs: nounwind uwtable
define range(i32 0, 2) i32 @ossl_quic_stream_map_stop_sending_recv_part(ptr noundef %0, ptr noundef %1, i64 noundef %2) local_unnamed_addr #0 {
  %4 = getelementptr inbounds nuw i8, ptr %1, i64 256
  %5 = load i64, ptr %4, align 8
  %6 = and i64 %5, 67108864
  %.not = icmp eq i64 %6, 0
  br i1 %.not, label %7, label %ossl_quic_stream_map_schedule_stop_sending.exit

7:                                                ; preds = %3
  %8 = lshr i64 %5, 16
  %trunc = trunc i64 %8 to i8
  %trunc.off = add i8 %trunc, -1
  %switch = icmp ult i8 %trunc.off, 2
  br i1 %switch, label %9, label %ossl_quic_stream_map_schedule_stop_sending.exit

9:                                                ; preds = %7
  %10 = or disjoint i64 %5, 67108864
  store i64 %10, ptr %4, align 8
  %11 = getelementptr inbounds nuw i8, ptr %1, i64 64
  store i64 %2, ptr %11, align 8, !tbaa !49
  %12 = and i64 %5, 17179869184
  %.not6.i = icmp eq i64 %12, 0
  br i1 %.not6.i, label %13, label %ossl_quic_stream_map_schedule_stop_sending.exit

13:                                               ; preds = %9
  %14 = or disjoint i64 %5, 17246978048
  store i64 %14, ptr %4, align 8
  tail call void @ossl_quic_stream_map_update_state(ptr noundef %0, ptr noundef nonnull %1)
  br label %ossl_quic_stream_map_schedule_stop_sending.exit

ossl_quic_stream_map_schedule_stop_sending.exit:  ; preds = %13, %9, %7, %3
  %.0 = phi i32 [ 0, %3 ], [ 0, %7 ], [ 1, %9 ], [ 1, %13 ]
  ret i32 %.0
}